; Function Attrs: mustprogress nofree norecurse nosync nounwind willreturn memory(argmem: read) uwtable
define internal range(i32 -1, 2) i32 @pg_ascii_dsplen(ptr noundef readonly captures(none) %0) #0 {
  %2 = load i8, ptr %0, align 1
  %3 = icmp eq i8 %2, 0
  %4 = icmp ult i8 %2, 32
  %5 = icmp eq i8 %2, 127
  %or.cond = or i1 %4, %5
  %spec.select = select i1 %or.cond, i32 -1, i32 1
  %.0 = select i1 %3, i32 0, i32 %spec.select
  ret i32 %.0
}